target datalayout = "e-m:e-p270:32:32-p271:32:32-p272:64:64-i64:64-i128:128-f80:128-n8:16:32:64-S128"
target triple = "x86_64-pc-linux-gnu"

%"class.llvm::SmallVectorBase" = type { ptr, i32, i32 }
%"class.std::unique_ptr" = type { %"struct.std::__uniq_ptr_data" }
%"struct.std::__uniq_ptr_data" = type { %"class.std::__uniq_ptr_impl" }
%"class.std::__uniq_ptr_impl" = type { %"class.std::tuple" }
%"class.std::tuple" = type { %"struct.std::_Tuple_impl" }
%"struct.std::_Tuple_impl" = type { %"struct.std::_Head_base.1" }
%"struct.std::_Head_base.1" = type { ptr }
%"class.llvm::WindowScheduler" = type <{ ptr, ptr, ptr, ptr, ptr, ptr, ptr, ptr, ptr, %"class.std::unique_ptr", %"class.llvm::SmallVector.2", %"class.llvm::SmallVector.2", %"class.llvm::DenseMap", %"class.llvm::DenseMap.7", %"class.llvm::SmallVector.10", i32, i32, i32, i32, i32, [4 x i8] }>
%"class.llvm::SmallVector.2" = type { %"class.llvm::SmallVectorImpl.3", %"struct.llvm::SmallVectorStorage.6" }
%"class.llvm::SmallVectorImpl.3" = type { %"class.llvm::SmallVectorTemplateBase.4" }
%"class.llvm::SmallVectorTemplateBase.4" = type { %"class.llvm::SmallVectorTemplateCommon.5" }
%"class.llvm::SmallVectorTemplateCommon.5" = type { %"class.llvm::SmallVectorBase" }
%"struct.llvm::SmallVectorStorage.6" = type { [48 x i8] }
%"class.llvm::DenseMap" = type <{ ptr, i32, i32, i32, [4 x i8] }>
%"class.llvm::DenseMap.7" = type <{ ptr, i32, i32, i32, [4 x i8] }>
%"class.llvm::SmallVector.10" = type { %"class.llvm::SmallVectorImpl.11", %"struct.llvm::SmallVectorStorage.14" }
%"class.llvm::SmallVectorImpl.11" = type { %"class.llvm::SmallVectorTemplateBase.12" }
%"class.llvm::SmallVectorTemplateBase.12" = type { %"class.llvm::SmallVectorTemplateCommon.13" }
%"class.llvm::SmallVectorTemplateCommon.13" = type { %"class.llvm::SmallVectorBase" }
%"struct.llvm::SmallVectorStorage.14" = type { [6144 x i8] }
%"class.llvm::ilist_node_impl.271" = type { %"class.llvm::ilist_node_base.272" }
%"class.llvm::ilist_node_base.272" = type { %"class.llvm::ilist_detail::node_base_prevnext.273" }
%"class.llvm::ilist_detail::node_base_prevnext.273" = type { %"class.llvm::PointerIntPair.274", ptr }
%"class.llvm::PointerIntPair.274" = type { %"struct.llvm::detail::PunnedPointer.275" }
%"struct.llvm::detail::PunnedPointer.275" = type { [8 x i8] }
%"class.llvm::MachineInstr" = type <{ %"class.llvm::ilist_node_with_parent.302", ptr, ptr, ptr, [3 x i8], %"class.llvm::ArrayRecycler<llvm::MachineOperand>::Capacity", i32, %"class.llvm::PointerSumType", %"class.llvm::DebugLoc", i32, i16, [2 x i8] }>
%"class.llvm::ilist_node_with_parent.302" = type { %"class.llvm::ilist_node.303" }
%"class.llvm::ilist_node.303" = type { %"class.llvm::ilist_node_impl.271" }
%"class.llvm::ArrayRecycler<llvm::MachineOperand>::Capacity" = type { i8 }
%"class.llvm::PointerSumType" = type { %"union.llvm::PointerSumType<llvm::MachineInstr::ExtraInfoInlineKinds, llvm::PointerSumTypeMember<0, llvm::MachineMemOperand *>, llvm::PointerSumTypeMember<1, llvm::MCSymbol *>, llvm::PointerSumTypeMember<2, llvm::MCSymbol *>, llvm::PointerSumTypeMember<3, llvm::MachineInstr::ExtraInfo *>>::StorageT" }
%"union.llvm::PointerSumType<llvm::MachineInstr::ExtraInfoInlineKinds, llvm::PointerSumTypeMember<0, llvm::MachineMemOperand *>, llvm::PointerSumTypeMember<1, llvm::MCSymbol *>, llvm::PointerSumTypeMember<2, llvm::MCSymbol *>, llvm::PointerSumTypeMember<3, llvm::MachineInstr::ExtraInfo *>>::StorageT" = type { i64 }
%"class.llvm::DebugLoc" = type { %"class.llvm::TypedTrackingMDRef" }
%"class.llvm::TypedTrackingMDRef" = type { %"class.llvm::TrackingMDRef" }
%"class.llvm::TrackingMDRef" = type { ptr }
%"class.llvm::MCInstrDesc" = type { i16, i16, i8, i8, i16, i8, i8, i16, i16, i64, i64 }

; Function Attrs: mustprogress nounwind uwtable
define linkonce_odr hidden noundef zeroext i1 @_ZNK4llvm12MachineInstr7getFlagENS0_6MIFlagE(ptr noundef nonnull align 8 dereferenceable(70) %0, i32 noundef %1) #1 comdat align 2 {
  %3 = alloca ptr, align 8
  %4 = alloca i32, align 4
  store ptr %0, ptr %3, align 8
  store i32 %1, ptr %4, align 4
  %5 = load ptr, ptr %3, align 8
  %6 = getelementptr inbounds nuw %"class.llvm::MachineInstr", ptr %5, i32 0, i32 6
  %7 = load i32, ptr %6, align 4
  %8 = and i32 %7, 16777215
  %9 = load i32, ptr %4, align 4
  %10 = and i32 %8, %9
  %11 = icmp ne i32 %10, 0
  ret i1 %11
}

; Function Attrs: mustprogress nounwind uwtable
define linkonce_odr hidden noundef zeroext i1 @_ZNK4llvm12MachineInstr17isBundledWithSuccEv(ptr noundef nonnull align 8 dereferenceable(70) %0) #1 comdat align 2 {
  %2 = alloca ptr, align 8
  store ptr %0, ptr %2, align 8
  %3 = load ptr, ptr %2, align 8
  %4 = call noundef zeroext i1 @_ZNK4llvm12MachineInstr7getFlagENS0_6MIFlagE(ptr noundef nonnull align 8 dereferenceable(70) %3, i32 noundef 8)
  ret i1 %4
}

; Function Attrs: mustprogress nounwind uwtable
define linkonce_odr hidden noundef i64 @_ZNK4llvm11MCInstrDesc8getFlagsEv(ptr noundef nonnull align 8 dereferenceable(32) %0) #1 comdat align 2 {
  %2 = alloca ptr, align 8
  store ptr %0, ptr %2, align 8
  %3 = load ptr, ptr %2, align 8
  %4 = getelementptr inbounds nuw %"class.llvm::MCInstrDesc", ptr %3, i32 0, i32 9
  %5 = load i64, ptr %4, align 8
  ret i64 %5
}

; Function Attrs: mustprogress nounwind uwtable
define linkonce_odr hidden noundef nonnull align 8 dereferenceable(32) ptr @_ZNK4llvm12MachineInstr7getDescEv(ptr noundef nonnull align 8 dereferenceable(70) %0) #1 comdat align 2 {
  %2 = alloca ptr, align 8
  store ptr %0, ptr %2, align 8
  %3 = load ptr, ptr %2, align 8
  %4 = getelementptr inbounds nuw %"class.llvm::MachineInstr", ptr %3, i32 0, i32 1
  %5 = load ptr, ptr %4, align 8
  ret ptr %5
}

; Function Attrs: mustprogress nounwind uwtable
define linkonce_odr hidden noundef zeroext i1 @_ZNK4llvm12MachineInstr17isBundledWithPredEv(ptr noundef nonnull align 8 dereferenceable(70) %0) #1 comdat align 2 {
  %2 = alloca ptr, align 8
  store ptr %0, ptr %2, align 8
  %3 = load ptr, ptr %2, align 8
  %4 = call noundef zeroext i1 @_ZNK4llvm12MachineInstr7getFlagENS0_6MIFlagE(ptr noundef nonnull align 8 dereferenceable(70) %3, i32 noundef 4)
  ret i1 %4
}

; Function Attrs: mustprogress nounwind uwtable
define linkonce_odr hidden noundef zeroext i1 @_ZNK4llvm12MachineInstr9isBundledEv(ptr noundef nonnull align 8 dereferenceable(70) %0) #1 comdat align 2 {
  %2 = alloca ptr, align 8
  store ptr %0, ptr %2, align 8
  %3 = load ptr, ptr %2, align 8
  %4 = call noundef zeroext i1 @_ZNK4llvm12MachineInstr17isBundledWithPredEv(ptr noundef nonnull align 8 dereferenceable(70) %3)
  br i1 %4, label %7, label %5

5:                                                ; preds = %1
  %6 = call noundef zeroext i1 @_ZNK4llvm12MachineInstr17isBundledWithSuccEv(ptr noundef nonnull align 8 dereferenceable(70) %3)
  br label %7

7:                                                ; preds = %5, %1
  %8 = phi i1 [ true, %1 ], [ %6, %5 ]
  ret i1 %8
}

; Function Attrs: mustprogress nounwind uwtable
define linkonce_odr hidden noundef zeroext i1 @_ZNK4llvm12MachineInstr11hasPropertyEjNS0_9QueryTypeE(ptr noundef nonnull align 8 dereferenceable(70) %0, i32 noundef %1, i32 noundef %2) #1 comdat align 2 {
  %4 = alloca i1, align 1
  %5 = alloca ptr, align 8
  %6 = alloca i32, align 4
  %7 = alloca i32, align 4
  store ptr %0, ptr %5, align 8
  store i32 %1, ptr %6, align 4
  store i32 %2, ptr %7, align 4
  %8 = load ptr, ptr %5, align 8
  %9 = load i32, ptr %7, align 4
  %10 = icmp eq i32 %9, 0
  br i1 %10, label %15, label %11

11:                                               ; preds = %3
  %12 = call noundef zeroext i1 @_ZNK4llvm12MachineInstr9isBundledEv(ptr noundef nonnull align 8 dereferenceable(70) %8)
  br i1 %12, label %13, label %15

13:                                               ; preds = %11
  %14 = call noundef zeroext i1 @_ZNK4llvm12MachineInstr17isBundledWithPredEv(ptr noundef nonnull align 8 dereferenceable(70) %8)
  br i1 %14, label %15, label %23

15:                                               ; preds = %13, %11, %3
  %16 = call noundef nonnull align 8 dereferenceable(32) ptr @_ZNK4llvm12MachineInstr7getDescEv(ptr noundef nonnull align 8 dereferenceable(70) %8)
  %17 = call noundef i64 @_ZNK4llvm11MCInstrDesc8getFlagsEv(ptr noundef nonnull align 8 dereferenceable(32) %16)
  %18 = load i32, ptr %6, align 4
  %19 = zext i32 %18 to i64
  %20 = shl i64 1, %19
  %21 = and i64 %17, %20
  %22 = icmp ne i64 %21, 0
  store i1 %22, ptr %4, align 1
  br label %29

23:                                               ; preds = %13
  %24 = load i32, ptr %6, align 4
  %25 = zext i32 %24 to i64
  %26 = shl i64 1, %25
  %27 = load i32, ptr %7, align 4
  %28 = call noundef zeroext i1 @_ZNK4llvm12MachineInstr19hasPropertyInBundleEmNS0_9QueryTypeE(ptr noundef nonnull align 8 dereferenceable(70) %8, i64 noundef %26, i32 noundef %27)
  store i1 %28, ptr %4, align 1
  br label %29

29:                                               ; preds = %23, %15
  %30 = load i1, ptr %4, align 1
  ret i1 %30
}

; Function Attrs: mustprogress nounwind uwtable
define linkonce_odr hidden noundef zeroext i1 @_ZNK4llvm12MachineInstr17isMetaInstructionENS0_9QueryTypeE(ptr noundef nonnull align 8 dereferenceable(70) %0, i32 noundef %1) #1 comdat align 2 {
  %3 = alloca ptr, align 8
  %4 = alloca i32, align 4
  store ptr %0, ptr %3, align 8
  store i32 %1, ptr %4, align 4
  %5 = load ptr, ptr %3, align 8
  %6 = load i32, ptr %4, align 4
  %7 = call noundef zeroext i1 @_ZNK4llvm12MachineInstr11hasPropertyEjNS0_9QueryTypeE(ptr noundef nonnull align 8 dereferenceable(70) %5, i32 noundef 4, i32 noundef %6)
  ret i1 %7
}

; Function Attrs: mustprogress nounwind uwtable
define linkonce_odr hidden noundef ptr @_ZN4llvm25SmallVectorTemplateCommonIPNS_12MachineInstrEvE3endEv(ptr noundef nonnull align 8 dereferenceable(16) %0) #1 comdat align 2 {
  %2 = alloca ptr, align 8
  store ptr %0, ptr %2, align 8
  %3 = load ptr, ptr %2, align 8
  %4 = call noundef ptr @_ZN4llvm25SmallVectorTemplateCommonIPNS_12MachineInstrEvE5beginEv(ptr noundef nonnull align 8 dereferenceable(16) %3)
  %5 = call noundef i64 @_ZNK4llvm15SmallVectorBaseIjE4sizeEv(ptr noundef nonnull align 8 dereferenceable(16) %3)
  %6 = getelementptr inbounds ptr, ptr %4, i64 %5
  ret ptr %6
}

; Function Attrs: mustprogress nounwind uwtable
define linkonce_odr hidden noundef ptr @_ZN4llvm25SmallVectorTemplateCommonIPNS_12MachineInstrEvE5beginEv(ptr noundef nonnull align 8 dereferenceable(16) %0) #1 comdat align 2 {
  %2 = alloca ptr, align 8
  store ptr %0, ptr %2, align 8
  %3 = load ptr, ptr %2, align 8
  %4 = getelementptr inbounds nuw %"class.llvm::SmallVectorBase", ptr %3, i32 0, i32 0
  %5 = load ptr, ptr %4, align 8
  ret ptr %5
}

; Function Attrs: mustprogress nounwind uwtable
define dso_local noundef i32 @_ZN4llvm15WindowScheduler11getOriStageEPNS_12MachineInstrEj(ptr noundef nonnull align 8 dereferenceable(6436) %0, ptr noundef %1, i32 noundef %2) #1 align 2 {
  %4 = alloca i32, align 4
  %5 = alloca ptr, align 8
  %6 = alloca ptr, align 8
  %7 = alloca i32, align 4
  %8 = alloca i32, align 4
  %9 = alloca ptr, align 8
  %10 = alloca ptr, align 8
  %11 = alloca ptr, align 8
  %12 = alloca ptr, align 8
  store ptr %0, ptr %5, align 8
  store ptr %1, ptr %6, align 8
  store i32 %2, ptr %7, align 4
  %13 = load ptr, ptr %5, align 8
  %14 = load i32, ptr %7, align 4
  %15 = getelementptr inbounds nuw %"class.llvm::WindowScheduler", ptr %13, i32 0, i32 15
  %16 = load i32, ptr %15, align 8
  %17 = icmp eq i32 %14, %16
  br i1 %17, label %18, label %19

18:                                               ; preds = %3
  store i32 0, ptr %4, align 4
  br label %53

19:                                               ; preds = %3
  store i32 0, ptr %8, align 4
  %20 = getelementptr inbounds nuw %"class.llvm::WindowScheduler", ptr %13, i32 0, i32 10
  store ptr %20, ptr %9, align 8
  %21 = load ptr, ptr %9, align 8
  %22 = call noundef ptr @_ZN4llvm25SmallVectorTemplateCommonIPNS_12MachineInstrEvE5beginEv(ptr noundef nonnull align 8 dereferenceable(16) %21)
  store ptr %22, ptr %10, align 8
  %23 = load ptr, ptr %9, align 8
  %24 = call noundef ptr @_ZN4llvm25SmallVectorTemplateCommonIPNS_12MachineInstrEvE3endEv(ptr noundef nonnull align 8 dereferenceable(16) %23)
  store ptr %24, ptr %11, align 8
  br label %25

25:                                               ; preds = %43, %19
  %26 = load ptr, ptr %10, align 8
  %27 = load ptr, ptr %11, align 8
  %28 = icmp ne ptr %26, %27
  br i1 %28, label %29, label %46

29:                                               ; preds = %25
  %30 = load ptr, ptr %10, align 8
  %31 = load ptr, ptr %30, align 8
  store ptr %31, ptr %12, align 8
  %32 = load ptr, ptr %12, align 8
  %33 = call noundef zeroext i1 @_ZNK4llvm12MachineInstr17isMetaInstructionENS0_9QueryTypeE(ptr noundef nonnull align 8 dereferenceable(70) %32, i32 noundef 0)
  br i1 %33, label %34, label %35

34:                                               ; preds = %29
  br label %43

35:                                               ; preds = %29
  %36 = load ptr, ptr %12, align 8
  %37 = load ptr, ptr %6, align 8
  %38 = icmp eq ptr %36, %37
  br i1 %38, label %39, label %40

39:                                               ; preds = %35
  br label %46

40:                                               ; preds = %35
  %41 = load i32, ptr %8, align 4
  %42 = add i32 %41, 1
  store i32 %42, ptr %8, align 4
  br label %43

43:                                               ; preds = %40, %34
  %44 = load ptr, ptr %10, align 8
  %45 = getelementptr inbounds ptr, ptr %44, i32 1
  store ptr %45, ptr %10, align 8
  br label %25

46:                                               ; preds = %39, %25
  %47 = load i32, ptr %8, align 4
  %48 = zext i32 %47 to i64
  %49 = load i32, ptr %7, align 4
  %50 = zext i32 %49 to i64
  %51 = icmp uge i64 %48, %50
  %52 = select i1 %51, i32 1, i32 0
  store i32 %52, ptr %4, align 4
  br label %53

53:                                               ; preds = %46, %18
  %54 = load i32, ptr %4, align 4
  ret i32 %54
}