; Function Attrs: mustprogress nounwind uwtable
define dso_local noundef range(i32 0, 2) i32 @_ZN4llvm15WindowScheduler11getOriStageEPNS_12MachineInstrEj(ptr noundef nonnull align 8 dereferenceable(6436) %0, ptr noundef readnone %1, i32 noundef %2) local_unnamed_addr #0 align 2 {
  %4 = getelementptr inbounds nuw i8, ptr %0, i64 6416
  %5 = load i32, ptr %4, align 8
  %6 = icmp eq i32 %2, %5
  br i1 %6, label %25, label %7

7:                                                ; preds = %3
  %8 = getelementptr inbounds nuw i8, ptr %0, i64 80
  %9 = load ptr, ptr %8, align 8
  %10 = tail call noundef i64 @_ZNK4llvm15SmallVectorBaseIjE4sizeEv(ptr noundef nonnull align 8 dereferenceable(16) %8) #21
  %11 = getelementptr inbounds ptr, ptr %9, i64 %10
  %.not19 = icmp eq i64 %10, 0
  br i1 %.not19, label %._crit_edge, label %.lr.ph

.lr.ph:                                           ; preds = %7, %22
  %.01421 = phi i32 [ %.1, %22 ], [ 0, %7 ]
  %.01520 = phi ptr [ %23, %22 ], [ %9, %7 ]
  %12 = load ptr, ptr %.01520, align 8
  %13 = getelementptr inbounds nuw i8, ptr %12, i64 16
  %14 = load ptr, ptr %13, align 8
  %15 = getelementptr inbounds nuw i8, ptr %14, i64 16
  %16 = load i64, ptr %15, align 8
  %17 = and i64 %16, 16
  %.not18 = icmp eq i64 %17, 0
  br i1 %.not18, label %18, label %22

18:                                               ; preds = %.lr.ph
  %19 = icmp eq ptr %12, %1
  br i1 %19, label %._crit_edge, label %20

20:                                               ; preds = %18
  %21 = add i32 %.01421, 1
  br label %22

22:                                               ; preds = %.lr.ph, %20
  %.1 = phi i32 [ %.01421, %.lr.ph ], [ %21, %20 ]
  %23 = getelementptr inbounds nuw i8, ptr %.01520, i64 8
  %.not = icmp eq ptr %23, %11
  br i1 %.not, label %._crit_edge, label %.lr.ph

._crit_edge:                                      ; preds = %22, %18, %7
  %.014.lcssa = phi i32 [ 0, %7 ], [ %.01421, %18 ], [ %.1, %22 ]
  %.not17 = icmp uge i32 %.014.lcssa, %2
  %24 = zext i1 %.not17 to i32
  br label %25

25:                                               ; preds = %3, %._crit_edge
  %.0 = phi i32 [ %24, %._crit_edge ], [ 0, %3 ]
  ret i32 %.0
}